target datalayout = "e-m:e-p270:32:32-p271:32:32-p272:64:64-i64:64-i128:128-f80:128-n8:16:32:64-S128"
target triple = "x86_64-pc-linux-gnu"

%struct._dfilter_loc = type { i64, i64 }
%struct.df_func_def_t = type { ptr, ptr, i32, i32, i32, ptr }

@.str.10 = private unnamed_addr constant [41 x i8] c"Function %s needs at least %u arguments.\00", align 1
@.str.11 = private unnamed_addr constant [42 x i8] c"Function %s can only accept %u arguments.\00", align 1

; Function Attrs: null_pointer_is_valid sspstrong uwtable
define hidden i32 @check_function(ptr noundef %0, ptr noundef %1, i32 noundef %2) #0 {
  %4 = alloca ptr, align 8
  %5 = alloca ptr, align 8
  %6 = alloca i32, align 4
  %7 = alloca ptr, align 8
  %8 = alloca ptr, align 8
  %9 = alloca i32, align 4
  %10 = alloca %struct._dfilter_loc, align 8
  %11 = alloca %struct._dfilter_loc, align 8
  %12 = alloca %struct._dfilter_loc, align 8
  store ptr %0, ptr %4, align 8
  store ptr %1, ptr %5, align 8
  store i32 %2, ptr %6, align 4
  call void @llvm.lifetime.start.p0(i64 8, ptr %7) #8
  call void @llvm.lifetime.start.p0(i64 8, ptr %8) #8
  call void @llvm.lifetime.start.p0(i64 4, ptr %9) #8
  %13 = load ptr, ptr %5, align 8
  %14 = call ptr @sttype_function_funcdef(ptr noundef %13)
  store ptr %14, ptr %7, align 8
  %15 = load ptr, ptr %5, align 8
  %16 = call ptr @sttype_function_params(ptr noundef %15)
  store ptr %16, ptr %8, align 8
  %17 = load ptr, ptr %8, align 8
  %18 = call i32 @g_slist_length(ptr noundef %17)
  store i32 %18, ptr %9, align 4
  %19 = load i32, ptr %9, align 4
  %20 = load ptr, ptr %7, align 8
  %21 = getelementptr inbounds nuw %struct.df_func_def_t, ptr %20, i32 0, i32 2
  %22 = load i32, ptr %21, align 8
  %23 = icmp ult i32 %19, %22
  br i1 %23, label %24, label %48

24:                                               ; preds = %3
  br label %25

25:                                               ; preds = %24
  br label %26

26:                                               ; preds = %25
  br label %27

27:                                               ; preds = %26
  br label %28

28:                                               ; preds = %27
  %29 = load ptr, ptr %4, align 8
  %30 = load ptr, ptr %5, align 8
  %31 = call { i64, i64 } @stnode_location(ptr noundef %30)
  %32 = getelementptr inbounds nuw { i64, i64 }, ptr %10, i32 0, i32 0
  %33 = extractvalue { i64, i64 } %31, 0
  store i64 %33, ptr %32, align 8
  %34 = getelementptr inbounds nuw { i64, i64 }, ptr %10, i32 0, i32 1
  %35 = extractvalue { i64, i64 } %31, 1
  store i64 %35, ptr %34, align 8
  %36 = load ptr, ptr %7, align 8
  %37 = getelementptr inbounds nuw %struct.df_func_def_t, ptr %36, i32 0, i32 0
  %38 = load ptr, ptr %37, align 8
  %39 = load ptr, ptr %7, align 8
  %40 = getelementptr inbounds nuw %struct.df_func_def_t, ptr %39, i32 0, i32 2
  %41 = load i32, ptr %40, align 8
  %42 = getelementptr inbounds nuw { i64, i64 }, ptr %10, i32 0, i32 0
  %43 = load i64, ptr %42, align 8
  %44 = getelementptr inbounds nuw { i64, i64 }, ptr %10, i32 0, i32 1
  %45 = load i64, ptr %44, align 8
  call void (ptr, i32, i64, i64, ptr, ...) @dfilter_fail_throw(ptr noundef %29, i32 noundef -1, i64 %43, i64 %45, ptr noundef @.str.10, ptr noundef %38, i32 noundef %41) #7
  unreachable

46:                                               ; No predecessors!
  br label %47

47:                                               ; preds = %46
  br label %84

48:                                               ; preds = %3
  %49 = load ptr, ptr %7, align 8
  %50 = getelementptr inbounds nuw %struct.df_func_def_t, ptr %49, i32 0, i32 3
  %51 = load i32, ptr %50, align 4
  %52 = icmp ugt i32 %51, 0
  br i1 %52, label %53, label %83

53:                                               ; preds = %48
  %54 = load i32, ptr %9, align 4
  %55 = load ptr, ptr %7, align 8
  %56 = getelementptr inbounds nuw %struct.df_func_def_t, ptr %55, i32 0, i32 3
  %57 = load i32, ptr %56, align 4
  %58 = icmp ugt i32 %54, %57
  br i1 %58, label %59, label %83

59:                                               ; preds = %53
  br label %60

60:                                               ; preds = %59
  br label %61

61:                                               ; preds = %60
  br label %62

62:                                               ; preds = %61
  br label %63

63:                                               ; preds = %62
  %64 = load ptr, ptr %4, align 8
  %65 = load ptr, ptr %5, align 8
  %66 = call { i64, i64 } @stnode_location(ptr noundef %65)
  %67 = getelementptr inbounds nuw { i64, i64 }, ptr %11, i32 0, i32 0
  %68 = extractvalue { i64, i64 } %66, 0
  store i64 %68, ptr %67, align 8
  %69 = getelementptr inbounds nuw { i64, i64 }, ptr %11, i32 0, i32 1
  %70 = extractvalue { i64, i64 } %66, 1
  store i64 %70, ptr %69, align 8
  %71 = load ptr, ptr %7, align 8
  %72 = getelementptr inbounds nuw %struct.df_func_def_t, ptr %71, i32 0, i32 0
  %73 = load ptr, ptr %72, align 8
  %74 = load ptr, ptr %7, align 8
  %75 = getelementptr inbounds nuw %struct.df_func_def_t, ptr %74, i32 0, i32 3
  %76 = load i32, ptr %75, align 4
  %77 = getelementptr inbounds nuw { i64, i64 }, ptr %11, i32 0, i32 0
  %78 = load i64, ptr %77, align 8
  %79 = getelementptr inbounds nuw { i64, i64 }, ptr %11, i32 0, i32 1
  %80 = load i64, ptr %79, align 8
  call void (ptr, i32, i64, i64, ptr, ...) @dfilter_fail_throw(ptr noundef %64, i32 noundef -1, i64 %78, i64 %80, ptr noundef @.str.11, ptr noundef %73, i32 noundef %76) #7
  unreachable

81:                                               ; No predecessors!
  br label %82

82:                                               ; preds = %81
  br label %83

83:                                               ; preds = %82, %53, %48
  br label %84

84:                                               ; preds = %83, %47
  %85 = load ptr, ptr %7, align 8
  %86 = getelementptr inbounds nuw %struct.df_func_def_t, ptr %85, i32 0, i32 5
  %87 = load ptr, ptr %86, align 8
  %88 = load ptr, ptr %4, align 8
  %89 = load ptr, ptr %7, align 8
  %90 = getelementptr inbounds nuw %struct.df_func_def_t, ptr %89, i32 0, i32 0
  %91 = load ptr, ptr %90, align 8
  %92 = load i32, ptr %6, align 4
  %93 = load ptr, ptr %8, align 8
  %94 = load ptr, ptr %5, align 8
  %95 = call { i64, i64 } @stnode_location(ptr noundef %94)
  %96 = getelementptr inbounds nuw { i64, i64 }, ptr %12, i32 0, i32 0
  %97 = extractvalue { i64, i64 } %95, 0
  store i64 %97, ptr %96, align 8
  %98 = getelementptr inbounds nuw { i64, i64 }, ptr %12, i32 0, i32 1
  %99 = extractvalue { i64, i64 } %95, 1
  store i64 %99, ptr %98, align 8
  %100 = getelementptr inbounds nuw { i64, i64 }, ptr %12, i32 0, i32 0
  %101 = load i64, ptr %100, align 8
  %102 = getelementptr inbounds nuw { i64, i64 }, ptr %12, i32 0, i32 1
  %103 = load i64, ptr %102, align 8
  %104 = call i32 %87(ptr noundef %88, ptr noundef %91, i32 noundef %92, ptr noundef %93, i64 %101, i64 %103)
  call void @llvm.lifetime.end.p0(i64 4, ptr %9) #8
  call void @llvm.lifetime.end.p0(i64 8, ptr %8) #8
  call void @llvm.lifetime.end.p0(i64 8, ptr %7) #8
  ret i32 %104
}