; Function Attrs: null_pointer_is_valid sspstrong uwtable
define hidden i32 @check_function(ptr noundef %0, ptr noundef %1, i32 noundef %2) local_unnamed_addr #0 {
  %4 = tail call ptr @sttype_function_funcdef(ptr noundef %1)
  %5 = tail call ptr @sttype_function_params(ptr noundef %1)
  %6 = tail call i32 @g_slist_length(ptr noundef %5)
  %7 = getelementptr inbounds nuw i8, ptr %4, i64 16
  %8 = load i32, ptr %7, align 8
  %9 = icmp ult i32 %6, %8
  br i1 %9, label %10, label %16

10:                                               ; preds = %3
  %11 = tail call { i64, i64 } @stnode_location(ptr noundef %1)
  %12 = extractvalue { i64, i64 } %11, 0
  %13 = extractvalue { i64, i64 } %11, 1
  %14 = load ptr, ptr %4, align 8
  %15 = load i32, ptr %7, align 8
  tail call void (ptr, i32, i64, i64, ptr, ...) @dfilter_fail_throw(ptr noundef %0, i32 noundef -1, i64 %12, i64 %13, ptr noundef nonnull @.str.10, ptr noundef %14, i32 noundef %15) #7
  unreachable

16:                                               ; preds = %3
  %17 = getelementptr inbounds nuw i8, ptr %4, i64 20
  %18 = load i32, ptr %17, align 4
  %.not = icmp ne i32 %18, 0
  %19 = icmp ugt i32 %6, %18
  %or.cond = and i1 %.not, %19
  br i1 %or.cond, label %20, label %26

20:                                               ; preds = %16
  %21 = tail call { i64, i64 } @stnode_location(ptr noundef %1)
  %22 = extractvalue { i64, i64 } %21, 0
  %23 = extractvalue { i64, i64 } %21, 1
  %24 = load ptr, ptr %4, align 8
  %25 = load i32, ptr %17, align 4
  tail call void (ptr, i32, i64, i64, ptr, ...) @dfilter_fail_throw(ptr noundef %0, i32 noundef -1, i64 %22, i64 %23, ptr noundef nonnull @.str.11, ptr noundef %24, i32 noundef %25) #7
  unreachable

26:                                               ; preds = %16
  %27 = getelementptr inbounds nuw i8, ptr %4, i64 32
  %28 = load ptr, ptr %27, align 8
  %29 = load ptr, ptr %4, align 8
  %30 = tail call { i64, i64 } @stnode_location(ptr noundef %1)
  %31 = extractvalue { i64, i64 } %30, 0
  %32 = extractvalue { i64, i64 } %30, 1
  %33 = tail call i32 %28(ptr noundef %0, ptr noundef %29, i32 noundef %2, ptr noundef %5, i64 %31, i64 %32)
  ret i32 %33
}